target datalayout = "e-m:e-p270:32:32-p271:32:32-p272:64:64-i64:64-i128:128-f80:128-n8:16:32:64-S128"
target triple = "x86_64-pc-linux-gnu"

%class.substitution_tree = type { ptr, %class.ptr_vector, i32, %class.ptr_vector.0, i32, %class.ptr_vector.2, i32, %class.bit_vector, %class.svector, %class.svector.5, %class.svector.5, ptr, %class.ptr_vector, i32, i32, i32, %class.svector.7 }
%class.ptr_vector.0 = type { %class.vector.1 }
%class.vector.1 = type { ptr }
%class.ptr_vector.2 = type { %class.vector.3 }
%class.vector.3 = type { ptr }
%class.bit_vector = type { i32, i32, ptr }
%class.svector = type { %class.vector.4 }
%class.vector.4 = type { ptr }
%class.svector.5 = type { %class.vector.6 }
%class.vector.6 = type { ptr }
%class.ptr_vector = type { %class.vector }
%class.vector = type { ptr }
%class.svector.7 = type { %class.vector.8 }
%class.vector.8 = type { ptr }

; Function Attrs: mustprogress nounwind uwtable
define linkonce_odr hidden void @_ZN10bit_vector5resetEv(ptr noundef nonnull align 8 dereferenceable(16) %0) #6 comdat align 2 {
  %2 = alloca ptr, align 8
  store ptr %0, ptr %2, align 8, !tbaa !37
  %3 = load ptr, ptr %2, align 8
  %4 = getelementptr inbounds nuw %class.bit_vector, ptr %3, i32 0, i32 2
  %5 = load ptr, ptr %4, align 8, !tbaa !103
  %6 = icmp ne ptr %5, null
  br i1 %6, label %7, label %14

7:                                                ; preds = %1
  %8 = getelementptr inbounds nuw %class.bit_vector, ptr %3, i32 0, i32 2
  %9 = load ptr, ptr %8, align 8, !tbaa !103
  %10 = getelementptr inbounds nuw %class.bit_vector, ptr %3, i32 0, i32 1
  %11 = load i32, ptr %10, align 4, !tbaa !104
  %12 = zext i32 %11 to i64
  %13 = mul i64 %12, 4
  call void @llvm.memset.p0.i64(ptr align 4 %9, i8 0, i64 %13, i1 false)
  br label %14

14:                                               ; preds = %7, %1
  %15 = getelementptr inbounds nuw %class.bit_vector, ptr %3, i32 0, i32 0
  store i32 0, ptr %15, align 8, !tbaa !39
  ret void
}

; Function Attrs: mustprogress nounwind uwtable
define linkonce_odr hidden void @_ZN6vectorIjLb0EjE5resetEv(ptr noundef nonnull align 8 dereferenceable(8) %0) #6 comdat align 2 {
  %2 = alloca ptr, align 8
  store ptr %0, ptr %2, align 8, !tbaa !59
  %3 = load ptr, ptr %2, align 8
  %4 = getelementptr inbounds nuw %class.vector.4, ptr %3, i32 0, i32 0
  %5 = load ptr, ptr %4, align 8, !tbaa !61
  %6 = icmp ne ptr %5, null
  br i1 %6, label %7, label %11

7:                                                ; preds = %1
  %8 = getelementptr inbounds nuw %class.vector.4, ptr %3, i32 0, i32 0
  %9 = load ptr, ptr %8, align 8, !tbaa !61
  %10 = getelementptr inbounds i32, ptr %9, i64 -1
  store i32 0, ptr %10, align 4, !tbaa !33
  br label %11

11:                                               ; preds = %7, %1
  ret void
}

; Function Attrs: mustprogress uwtable
define hidden void @_ZN17substitution_tree14reset_compilerEv(ptr noundef nonnull align 8 dereferenceable(136) %0) #4 align 2 {
  %2 = alloca ptr, align 8
  store ptr %0, ptr %2, align 8, !tbaa !3
  %3 = load ptr, ptr %2, align 8
  %4 = getelementptr inbounds nuw %class.substitution_tree, ptr %3, i32 0, i32 8
  call void @_ZN6vectorIjLb0EjE5resetEv(ptr noundef nonnull align 8 dereferenceable(8) %4)
  %5 = getelementptr inbounds nuw %class.substitution_tree, ptr %3, i32 0, i32 7
  call void @_ZN10bit_vector5resetEv(ptr noundef nonnull align 8 dereferenceable(16) %5)
  %6 = getelementptr inbounds nuw %class.substitution_tree, ptr %3, i32 0, i32 6
  store i32 1, ptr %6, align 8, !tbaa !8
  ret void
}