; Function Attrs: mustprogress nofree norecurse nosync nounwind willreturn memory(write, argmem: readwrite, inaccessiblemem: none) uwtable
define hidden void @_ZN17substitution_tree14reset_compilerEv(ptr noundef nonnull align 8 captures(none) dereferenceable(136) initializes((48, 52), (56, 60)) %0) local_unnamed_addr #8 align 2 {
  %2 = getelementptr inbounds nuw i8, ptr %0, i64 72
  %3 = load ptr, ptr %2, align 8, !tbaa !38
  %.not.i = icmp eq ptr %3, null
  br i1 %.not.i, label %_ZN6vectorIjLb0EjE5resetEv.exit, label %4

4:                                                ; preds = %1
  %5 = getelementptr inbounds i8, ptr %3, i64 -4
  store i32 0, ptr %5, align 4, !tbaa !33
  br label %_ZN6vectorIjLb0EjE5resetEv.exit

_ZN6vectorIjLb0EjE5resetEv.exit:                  ; preds = %1, %4
  %6 = getelementptr inbounds nuw i8, ptr %0, i64 64
  %7 = load ptr, ptr %6, align 8, !tbaa !77
  %.not.i1 = icmp eq ptr %7, null
  br i1 %.not.i1, label %_ZN10bit_vector5resetEv.exit, label %8

8:                                                ; preds = %_ZN6vectorIjLb0EjE5resetEv.exit
  %9 = getelementptr inbounds nuw i8, ptr %0, i64 60
  %10 = load i32, ptr %9, align 4, !tbaa !78
  %11 = zext i32 %10 to i64
  %12 = shl nuw nsw i64 %11, 2
  tail call void @llvm.memset.p0.i64(ptr nonnull align 4 %7, i8 0, i64 %12, i1 false)
  br label %_ZN10bit_vector5resetEv.exit

_ZN10bit_vector5resetEv.exit:                     ; preds = %_ZN6vectorIjLb0EjE5resetEv.exit, %8
  %13 = getelementptr inbounds nuw i8, ptr %0, i64 56
  store i32 0, ptr %13, align 8, !tbaa !3
  %14 = getelementptr inbounds nuw i8, ptr %0, i64 48
  store i32 1, ptr %14, align 8, !tbaa !10
  ret void
}